target datalayout = "e-m:e-p270:32:32-p271:32:32-p272:64:64-i64:64-i128:128-f80:128-n8:16:32:64-S128"
target triple = "x86_64-pc-linux-gnu"

%struct.AVFilterContext = type { ptr, ptr, ptr, ptr, ptr, i32, ptr, ptr, i32, ptr, ptr, i32, i32, ptr, ptr, ptr, ptr, i32, ptr, i32, i32 }
%struct.IdentityContext = type { ptr, %struct.FFFrameSync, double, double, double, [4 x double], i64, i32, i32, [4 x i8], [4 x i32], [4 x i8], i32, i32, [4 x i32], [4 x i32], ptr, ptr, ptr, ptr }
%struct.FFFrameSync = type { ptr, ptr, i32, %struct.AVRational, i64, ptr, ptr, i32, i32, i8, i8, ptr, i32, i32, i32, i32 }
%struct.AVRational = type { i32, i32 }
%struct.ThreadData = type { [4 x ptr], [4 x ptr], [4 x i32], [4 x i32], [4 x i32], [4 x i32], ptr, i32 }

; Function Attrs: nounwind uwtable
define internal i32 @compute_images_msad(ptr noundef %0, ptr noundef %1, i32 noundef %2, i32 noundef %3) #0 {
  %5 = alloca ptr, align 8
  %6 = alloca ptr, align 8
  %7 = alloca i32, align 4
  %8 = alloca i32, align 4
  %9 = alloca ptr, align 8
  %10 = alloca ptr, align 8
  %11 = alloca ptr, align 8
  %12 = alloca i32, align 4
  %13 = alloca i32, align 4
  %14 = alloca i32, align 4
  %15 = alloca i32, align 4
  %16 = alloca i32, align 4
  %17 = alloca i32, align 4
  %18 = alloca i32, align 4
  %19 = alloca ptr, align 8
  %20 = alloca ptr, align 8
  %21 = alloca i64, align 8
  store ptr %0, ptr %5, align 8, !tbaa !4
  store ptr %1, ptr %6, align 8, !tbaa !77
  store i32 %2, ptr %7, align 4, !tbaa !34
  store i32 %3, ptr %8, align 4, !tbaa !34
  call void @llvm.lifetime.start.p0(i64 8, ptr %9) #10
  %22 = load ptr, ptr %5, align 8, !tbaa !4
  %23 = getelementptr inbounds nuw %struct.AVFilterContext, ptr %22, i32 0, i32 9
  %24 = load ptr, ptr %23, align 8, !tbaa !9
  store ptr %24, ptr %9, align 8, !tbaa !22
  call void @llvm.lifetime.start.p0(i64 8, ptr %10) #10
  %25 = load ptr, ptr %6, align 8, !tbaa !77
  store ptr %25, ptr %10, align 8, !tbaa !78
  call void @llvm.lifetime.start.p0(i64 8, ptr %11) #10
  %26 = load ptr, ptr %10, align 8, !tbaa !78
  %27 = getelementptr inbounds nuw %struct.ThreadData, ptr %26, i32 0, i32 6
  %28 = load ptr, ptr %27, align 8, !tbaa !80
  %29 = load i32, ptr %7, align 4, !tbaa !34
  %30 = sext i32 %29 to i64
  %31 = getelementptr inbounds ptr, ptr %28, i64 %30
  %32 = load ptr, ptr %31, align 8, !tbaa !68
  store ptr %32, ptr %11, align 8, !tbaa !68
  call void @llvm.lifetime.start.p0(i64 4, ptr %12) #10
  store i32 0, ptr %12, align 4, !tbaa !34
  br label %33

33:                                               ; preds = %118, %4
  %34 = load i32, ptr %12, align 4, !tbaa !34
  %35 = load ptr, ptr %10, align 8, !tbaa !78
  %36 = getelementptr inbounds nuw %struct.ThreadData, ptr %35, i32 0, i32 7
  %37 = load i32, ptr %36, align 8, !tbaa !82
  %38 = icmp slt i32 %34, %37
  br i1 %38, label %40, label %39

39:                                               ; preds = %33
  call void @llvm.lifetime.end.p0(i64 4, ptr %12) #10
  br label %121

40:                                               ; preds = %33
  call void @llvm.lifetime.start.p0(i64 4, ptr %13) #10
  %41 = load ptr, ptr %10, align 8, !tbaa !78
  %42 = getelementptr inbounds nuw %struct.ThreadData, ptr %41, i32 0, i32 4
  %43 = load i32, ptr %12, align 4, !tbaa !34
  %44 = sext i32 %43 to i64
  %45 = getelementptr inbounds [4 x i32], ptr %42, i64 0, i64 %44
  %46 = load i32, ptr %45, align 4, !tbaa !34
  store i32 %46, ptr %13, align 4, !tbaa !34
  call void @llvm.lifetime.start.p0(i64 4, ptr %14) #10
  %47 = load ptr, ptr %10, align 8, !tbaa !78
  %48 = getelementptr inbounds nuw %struct.ThreadData, ptr %47, i32 0, i32 5
  %49 = load i32, ptr %12, align 4, !tbaa !34
  %50 = sext i32 %49 to i64
  %51 = getelementptr inbounds [4 x i32], ptr %48, i64 0, i64 %50
  %52 = load i32, ptr %51, align 4, !tbaa !34
  store i32 %52, ptr %14, align 4, !tbaa !34
  call void @llvm.lifetime.start.p0(i64 4, ptr %15) #10
  %53 = load i32, ptr %14, align 4, !tbaa !34
  %54 = load i32, ptr %7, align 4, !tbaa !34
  %55 = mul nsw i32 %53, %54
  %56 = load i32, ptr %8, align 4, !tbaa !34
  %57 = sdiv i32 %55, %56
  store i32 %57, ptr %15, align 4, !tbaa !34
  call void @llvm.lifetime.start.p0(i64 4, ptr %16) #10
  %58 = load i32, ptr %14, align 4, !tbaa !34
  %59 = load i32, ptr %7, align 4, !tbaa !34
  %60 = add nsw i32 %59, 1
  %61 = mul nsw i32 %58, %60
  %62 = load i32, ptr %8, align 4, !tbaa !34
  %63 = sdiv i32 %61, %62
  store i32 %63, ptr %16, align 4, !tbaa !34
  call void @llvm.lifetime.start.p0(i64 4, ptr %17) #10
  %64 = load ptr, ptr %10, align 8, !tbaa !78
  %65 = getelementptr inbounds nuw %struct.ThreadData, ptr %64, i32 0, i32 3
  %66 = load i32, ptr %12, align 4, !tbaa !34
  %67 = sext i32 %66 to i64
  %68 = getelementptr inbounds [4 x i32], ptr %65, i64 0, i64 %67
  %69 = load i32, ptr %68, align 4, !tbaa !34
  store i32 %69, ptr %17, align 4, !tbaa !34
  call void @llvm.lifetime.start.p0(i64 4, ptr %18) #10
  %70 = load ptr, ptr %10, align 8, !tbaa !78
  %71 = getelementptr inbounds nuw %struct.ThreadData, ptr %70, i32 0, i32 2
  %72 = load i32, ptr %12, align 4, !tbaa !34
  %73 = sext i32 %72 to i64
  %74 = getelementptr inbounds [4 x i32], ptr %71, i64 0, i64 %73
  %75 = load i32, ptr %74, align 4, !tbaa !34
  store i32 %75, ptr %18, align 4, !tbaa !34
  call void @llvm.lifetime.start.p0(i64 8, ptr %19) #10
  %76 = load ptr, ptr %10, align 8, !tbaa !78
  %77 = getelementptr inbounds nuw %struct.ThreadData, ptr %76, i32 0, i32 0
  %78 = load i32, ptr %12, align 4, !tbaa !34
  %79 = sext i32 %78 to i64
  %80 = getelementptr inbounds [4 x ptr], ptr %77, i64 0, i64 %79
  %81 = load ptr, ptr %80, align 8, !tbaa !83
  %82 = load i32, ptr %18, align 4, !tbaa !34
  %83 = load i32, ptr %15, align 4, !tbaa !34
  %84 = mul nsw i32 %82, %83
  %85 = sext i32 %84 to i64
  %86 = getelementptr inbounds i8, ptr %81, i64 %85
  store ptr %86, ptr %19, align 8, !tbaa !83
  call void @llvm.lifetime.start.p0(i64 8, ptr %20) #10
  %87 = load ptr, ptr %10, align 8, !tbaa !78
  %88 = getelementptr inbounds nuw %struct.ThreadData, ptr %87, i32 0, i32 1
  %89 = load i32, ptr %12, align 4, !tbaa !34
  %90 = sext i32 %89 to i64
  %91 = getelementptr inbounds [4 x ptr], ptr %88, i64 0, i64 %90
  %92 = load ptr, ptr %91, align 8, !tbaa !83
  %93 = load i32, ptr %17, align 4, !tbaa !34
  %94 = load i32, ptr %15, align 4, !tbaa !34
  %95 = mul nsw i32 %93, %94
  %96 = sext i32 %95 to i64
  %97 = getelementptr inbounds i8, ptr %92, i64 %96
  store ptr %97, ptr %20, align 8, !tbaa !83
  call void @llvm.lifetime.start.p0(i64 8, ptr %21) #10
  store i64 0, ptr %21, align 8, !tbaa !84
  %98 = load ptr, ptr %9, align 8, !tbaa !22
  %99 = getelementptr inbounds nuw %struct.IdentityContext, ptr %98, i32 0, i32 19
  %100 = load ptr, ptr %99, align 8, !tbaa !76
  %101 = load ptr, ptr %19, align 8, !tbaa !83
  %102 = load i32, ptr %18, align 4, !tbaa !34
  %103 = sext i32 %102 to i64
  %104 = load ptr, ptr %20, align 8, !tbaa !83
  %105 = load i32, ptr %17, align 4, !tbaa !34
  %106 = sext i32 %105 to i64
  %107 = load i32, ptr %13, align 4, !tbaa !34
  %108 = sext i32 %107 to i64
  %109 = load i32, ptr %16, align 4, !tbaa !34
  %110 = load i32, ptr %15, align 4, !tbaa !34
  %111 = sub nsw i32 %109, %110
  %112 = sext i32 %111 to i64
  call void %100(ptr noundef %101, i64 noundef %103, ptr noundef %104, i64 noundef %106, i64 noundef %108, i64 noundef %112, ptr noundef %21)
  %113 = load i64, ptr %21, align 8, !tbaa !84
  %114 = load ptr, ptr %11, align 8, !tbaa !68
  %115 = load i32, ptr %12, align 4, !tbaa !34
  %116 = sext i32 %115 to i64
  %117 = getelementptr inbounds i64, ptr %114, i64 %116
  store i64 %113, ptr %117, align 8, !tbaa !84
  call void @llvm.lifetime.end.p0(i64 8, ptr %21) #10
  call void @llvm.lifetime.end.p0(i64 8, ptr %20) #10
  call void @llvm.lifetime.end.p0(i64 8, ptr %19) #10
  call void @llvm.lifetime.end.p0(i64 4, ptr %18) #10
  call void @llvm.lifetime.end.p0(i64 4, ptr %17) #10
  call void @llvm.lifetime.end.p0(i64 4, ptr %16) #10
  call void @llvm.lifetime.end.p0(i64 4, ptr %15) #10
  call void @llvm.lifetime.end.p0(i64 4, ptr %14) #10
  call void @llvm.lifetime.end.p0(i64 4, ptr %13) #10
  br label %118

118:                                              ; preds = %40
  %119 = load i32, ptr %12, align 4, !tbaa !34
  %120 = add nsw i32 %119, 1
  store i32 %120, ptr %12, align 4, !tbaa !34
  br label %33, !llvm.loop !87

121:                                              ; preds = %39
  call void @llvm.lifetime.end.p0(i64 8, ptr %11) #10
  call void @llvm.lifetime.end.p0(i64 8, ptr %10) #10
  call void @llvm.lifetime.end.p0(i64 8, ptr %9) #10
  ret i32 0
}