; Function Attrs: nounwind uwtable
define internal noundef i32 @compute_images_msad(ptr noundef readonly captures(none) %0, ptr noundef readonly captures(none) %1, i32 noundef %2, i32 noundef %3) #0 {
  %5 = alloca i64, align 8
  %6 = getelementptr inbounds nuw i8, ptr %1, i64 128
  %7 = load ptr, ptr %6, align 8, !tbaa !72
  %8 = sext i32 %2 to i64
  %9 = getelementptr inbounds ptr, ptr %7, i64 %8
  %10 = load ptr, ptr %9, align 8, !tbaa !64
  %11 = getelementptr inbounds nuw i8, ptr %1, i64 136
  %12 = load i32, ptr %11, align 8, !tbaa !74
  %13 = icmp sgt i32 %12, 0
  br i1 %13, label %.lr.ph, label %._crit_edge

.lr.ph:                                           ; preds = %4
  %14 = getelementptr inbounds nuw i8, ptr %0, i64 72
  %15 = load ptr, ptr %14, align 8, !tbaa !4
  %16 = getelementptr inbounds nuw i8, ptr %1, i64 96
  %17 = getelementptr inbounds nuw i8, ptr %1, i64 112
  %18 = add nsw i32 %2, 1
  %19 = getelementptr inbounds nuw i8, ptr %1, i64 80
  %20 = getelementptr inbounds nuw i8, ptr %1, i64 64
  %21 = getelementptr inbounds nuw i8, ptr %1, i64 32
  %22 = getelementptr inbounds nuw i8, ptr %15, i64 264
  br label %23

._crit_edge:                                      ; preds = %23, %4
  ret i32 0

23:                                               ; preds = %.lr.ph, %23
  %indvars.iv = phi i64 [ 0, %.lr.ph ], [ %indvars.iv.next, %23 ]
  %24 = getelementptr inbounds nuw [4 x i32], ptr %16, i64 0, i64 %indvars.iv
  %25 = load i32, ptr %24, align 4, !tbaa !61
  %26 = getelementptr inbounds nuw [4 x i32], ptr %17, i64 0, i64 %indvars.iv
  %27 = load i32, ptr %26, align 4, !tbaa !61
  %28 = mul nsw i32 %27, %2
  %29 = sdiv i32 %28, %3
  %30 = mul nsw i32 %27, %18
  %31 = sdiv i32 %30, %3
  %32 = getelementptr inbounds nuw [4 x i32], ptr %19, i64 0, i64 %indvars.iv
  %33 = load i32, ptr %32, align 4, !tbaa !61
  %34 = getelementptr inbounds nuw [4 x i32], ptr %20, i64 0, i64 %indvars.iv
  %35 = load i32, ptr %34, align 4, !tbaa !61
  %36 = getelementptr inbounds nuw [4 x ptr], ptr %1, i64 0, i64 %indvars.iv
  %37 = load ptr, ptr %36, align 8, !tbaa !75
  %38 = mul nsw i32 %35, %29
  %39 = sext i32 %38 to i64
  %40 = getelementptr inbounds i8, ptr %37, i64 %39
  %41 = getelementptr inbounds nuw [4 x ptr], ptr %21, i64 0, i64 %indvars.iv
  %42 = load ptr, ptr %41, align 8, !tbaa !75
  %43 = mul nsw i32 %33, %29
  %44 = sext i32 %43 to i64
  %45 = getelementptr inbounds i8, ptr %42, i64 %44
  call void @llvm.lifetime.start.p0(i64 8, ptr nonnull %5) #12
  store i64 0, ptr %5, align 8, !tbaa !76
  %46 = load ptr, ptr %22, align 8, !tbaa !71
  %47 = sext i32 %35 to i64
  %48 = sext i32 %33 to i64
  %49 = sext i32 %25 to i64
  %50 = sub nsw i32 %31, %29
  %51 = sext i32 %50 to i64
  call void %46(ptr noundef %40, i64 noundef %47, ptr noundef %45, i64 noundef %48, i64 noundef %49, i64 noundef %51, ptr noundef nonnull %5) #12
  %52 = load i64, ptr %5, align 8, !tbaa !76
  %53 = getelementptr inbounds nuw i64, ptr %10, i64 %indvars.iv
  store i64 %52, ptr %53, align 8, !tbaa !76
  call void @llvm.lifetime.end.p0(i64 8, ptr nonnull %5) #12
  %indvars.iv.next = add nuw nsw i64 %indvars.iv, 1
  %54 = load i32, ptr %11, align 8, !tbaa !74
  %55 = sext i32 %54 to i64
  %56 = icmp slt i64 %indvars.iv.next, %55
  br i1 %56, label %23, label %._crit_edge, !llvm.loop !79
}